; Function Attrs: nounwind uwtable
define void @Gia_ManStochSynthesis(ptr noundef readonly captures(none) %0, ptr noundef %1) local_unnamed_addr #0 {
  %3 = getelementptr i8, ptr %0, i64 4
  %.val41 = load i32, ptr %3, align 4, !tbaa !37
  %4 = icmp sgt i32 %.val41, 0
  br i1 %4, label %.lr.ph, label %.critedge

.lr.ph:                                           ; preds = %2
  %5 = getelementptr i8, ptr %0, i64 8
  br label %6

6:                                                ; preds = %.lr.ph, %57
  %indvars.iv = phi i64 [ 0, %.lr.ph ], [ %indvars.iv.next, %57 ]
  %.val32 = load ptr, ptr %5, align 8, !tbaa !43
  %7 = getelementptr inbounds nuw ptr, ptr %.val32, i64 %indvars.iv
  %8 = load ptr, ptr %7, align 8, !tbaa !44
  %9 = tail call ptr @Gia_ManDup(ptr noundef %8) #18
  tail call void @Gia_ManDupMapping(ptr noundef %9, ptr noundef %8)
  %10 = tail call ptr (...) @Abc_FrameGetGlobalFrame() #18
  tail call void @Abc_FrameUpdateGia(ptr noundef %10, ptr noundef %8) #18
  %11 = tail call i32 (...) @Abc_FrameIsBatchMode() #18
  %.not = icmp eq i32 %11, 0
  br i1 %.not, label %16, label %12

12:                                               ; preds = %6
  %13 = tail call ptr (...) @Abc_FrameGetGlobalFrame() #18
  %14 = tail call i32 @Cmd_CommandExecute(ptr noundef %13, ptr noundef %1) #18
  %.not27 = icmp eq i32 %14, 0
  br i1 %.not27, label %21, label %15

15:                                               ; preds = %12
  tail call void (i32, ptr, ...) @Abc_Print(i32 poison, ptr noundef nonnull @.str, ptr noundef %1)
  br label %.critedge

16:                                               ; preds = %6
  tail call void @Abc_FrameSetBatchMode(i32 noundef 1) #18
  %17 = tail call ptr (...) @Abc_FrameGetGlobalFrame() #18
  %18 = tail call i32 @Cmd_CommandExecute(ptr noundef %17, ptr noundef %1) #18
  %.not26 = icmp eq i32 %18, 0
  br i1 %.not26, label %20, label %19

19:                                               ; preds = %16
  tail call void (i32, ptr, ...) @Abc_Print(i32 poison, ptr noundef nonnull @.str, ptr noundef %1)
  tail call void @Abc_FrameSetBatchMode(i32 noundef 0) #18
  br label %.critedge

20:                                               ; preds = %16
  tail call void @Abc_FrameSetBatchMode(i32 noundef 0) #18
  br label %21

21:                                               ; preds = %12, %20
  %22 = tail call ptr (...) @Abc_FrameGetGlobalFrame() #18
  %23 = tail call ptr @Abc_FrameReadGia(ptr noundef %22) #18
  %24 = getelementptr i8, ptr %23, i64 264
  %.val34 = load ptr, ptr %24, align 8, !tbaa !56
  %.not38 = icmp eq ptr %.val34, null
  br i1 %.not38, label %33, label %25

25:                                               ; preds = %21
  %26 = getelementptr i8, ptr %9, i64 264
  %.val35 = load ptr, ptr %26, align 8, !tbaa !56
  %.not39 = icmp eq ptr %.val35, null
  br i1 %.not39, label %33, label %27

27:                                               ; preds = %25
  %28 = tail call i32 @Gia_ManLutNum(ptr noundef nonnull %23) #18
  %29 = tail call i32 @Gia_ManLutNum(ptr noundef nonnull %9) #18
  %30 = icmp slt i32 %28, %29
  br i1 %30, label %31, label %57

31:                                               ; preds = %27
  tail call void @Gia_ManStop(ptr noundef nonnull %9) #18
  %32 = tail call ptr @Gia_ManDup(ptr noundef nonnull %23) #18
  tail call void @Gia_ManDupMapping(ptr noundef %32, ptr noundef nonnull %23)
  br label %57

33:                                               ; preds = %25, %21
  %34 = getelementptr inbounds nuw i8, ptr %23, i64 24
  %35 = load i32, ptr %34, align 8, !tbaa !3
  %36 = getelementptr inbounds nuw i8, ptr %23, i64 64
  %37 = load ptr, ptr %36, align 8, !tbaa !28
  %38 = getelementptr i8, ptr %37, i64 4
  %.val.i = load i32, ptr %38, align 4, !tbaa !29
  %39 = getelementptr inbounds nuw i8, ptr %23, i64 72
  %40 = load ptr, ptr %39, align 8, !tbaa !30
  %41 = getelementptr i8, ptr %40, i64 4
  %.val3.i = load i32, ptr %41, align 4, !tbaa !29
  %42 = getelementptr inbounds nuw i8, ptr %9, i64 24
  %43 = load i32, ptr %42, align 8, !tbaa !3
  %44 = getelementptr inbounds nuw i8, ptr %9, i64 64
  %45 = load ptr, ptr %44, align 8, !tbaa !28
  %46 = getelementptr i8, ptr %45, i64 4
  %.val.i36 = load i32, ptr %46, align 4, !tbaa !29
  %47 = getelementptr inbounds nuw i8, ptr %9, i64 72
  %48 = load ptr, ptr %47, align 8, !tbaa !30
  %49 = getelementptr i8, ptr %48, i64 4
  %.val3.i37 = load i32, ptr %49, align 4, !tbaa !29
  %50 = sub i32 %.val.i, %35
  %51 = add i32 %50, %.val3.i
  %52 = sub i32 %.val.i36, %43
  %53 = add i32 %52, %.val3.i37
  %54 = icmp sgt i32 %51, %53
  br i1 %54, label %55, label %57

55:                                               ; preds = %33
  tail call void @Gia_ManStop(ptr noundef nonnull %9) #18
  %56 = tail call ptr @Gia_ManDup(ptr noundef nonnull %23) #18
  br label %57

57:                                               ; preds = %33, %55, %27, %31
  %.024 = phi ptr [ %32, %31 ], [ %9, %27 ], [ %56, %55 ], [ %9, %33 ]
  %.val33 = load ptr, ptr %5, align 8, !tbaa !43
  %58 = getelementptr inbounds nuw ptr, ptr %.val33, i64 %indvars.iv
  store ptr %.024, ptr %58, align 8, !tbaa !44
  %indvars.iv.next = add nuw nsw i64 %indvars.iv, 1
  %.val = load i32, ptr %3, align 4, !tbaa !37
  %59 = sext i32 %.val to i64
  %60 = icmp slt i64 %indvars.iv.next, %59
  br i1 %60, label %6, label %.critedge, !llvm.loop !62

.critedge:                                        ; preds = %57, %2, %15, %19
  ret void
}